ccopy_reg
_reconstructor
p0
(c__main__
my_dict
p1
c__builtin__
object
p2
Ntp3
Rp4
(dp5
S'performance'
p6
(dp7
I0
(lp8
(dp9
S'TPR_protected'
p10
F0.4647058823529412
sS'auc'
p11
cnumpy.core.multiarray
scalar
p12
(cnumpy
dtype
p13
(S'f8'
p14
I0
I1
tp15
Rp16
(I3
S'<'
p17
NNNI-1
I-1
I0
tp18
bS'6,\xbd\x88\x13\x95\xe7?'
p19
tp20
Rp21
sS'dTNR'
p22
F-0.028860028860028808
sS'TPR_non_protected'
p23
F0.3670886075949367
sS'dTPR'
p24
F-0.09761727475800447
sS'TNR_non_protected'
p25
F0.8412698412698413
sS'average_precision'
p26
g12
(g16
S'\x87\xfb\xf2OX\xa8\xe2?'
p27
tp28
Rp29
sS'TNR_protected'
p30
F0.8701298701298701
sS'accuracy'
p31
g12
(g16
S'/\xbe\x07\xf0\x10\r\xe5?'
p32
tp33
Rp34
sa(dp35
S'TPR_non_protected'
p36
F0.7027027027027027
sS'auc'
p37
g12
(g16
S'w\x048\xc7\xc6S\xe6?'
p38
tp39
Rp40
sS'dTNR'
p41
F0.006211817855126034
sS'TPR_protected'
p42
F0.7828571428571428
sS'TNR_protected'
p43
F0.5364238410596026
sS'TNR_non_protected'
p44
F0.5426356589147286
sS'average_precision'
p45
g12
(g16
S'1\xd9\x83v\xc4\x10\xe2?'
p46
tp47
Rp48
sS'dTPR'
p49
F-0.08015444015444007
sS'accuracy'
p50
g12
(g16
S'\x81\x969\xf9-\x91\xe4?'
p51
tp52
Rp53
sa(dp54
S'TPR_protected'
p55
F0.3393939393939394
sS'auc'
p56
g12
(g16
S'aIzW\xdaE\xe6?'
p57
tp58
Rp59
sS'dTNR'
p60
F-0.023215470177049835
sS'TPR_non_protected'
p61
F0.39285714285714285
sS'dTPR'
p62
F0.053463203463203435
sS'TNR_non_protected'
p63
F0.8633093525179856
sS'average_precision'
p64
g12
(g16
S'\xbdw\xb8yS\xe3\xe1?'
p65
tp66
Rp67
sS'TNR_protected'
p68
F0.8865248226950354
sS'accuracy'
p69
g12
(g16
S'\xbe\xf8\x1e\xc0C4\xe4?'
p70
tp71
Rp72
sa(dp73
S'TPR_non_protected'
p74
F0.2988505747126437
sS'auc'
p75
g12
(g16
S'\xf5\x04GOp\xb4\xe6?'
p76
tp77
Rp78
sS'dTNR'
p79
F-0.07197661673364997
sS'TPR_protected'
p80
F0.12422360248447205
sS'TNR_protected'
p81
F0.9627329192546584
sS'TNR_non_protected'
p82
F0.8907563025210085
sS'average_precision'
p83
g12
(g16
S'J\x96==cq\xe0?'
p84
tp85
Rp86
sS'dTPR'
p87
F0.17462697222817164
sS'accuracy'
p88
g12
(g16
S'\x9bl\xb2\xc9&\x9b\xe2?'
p89
tp90
Rp91
sa(dp92
S'TPR_protected'
p93
F0.7160493827160493
sS'auc'
p94
g12
(g16
S'\x00\xba\xd4\x05\xe3\xba\xe6?'
p95
tp96
Rp97
sS'dTNR'
p98
F0.07275812422871253
sS'TPR_non_protected'
p99
F0.3953488372093023
sS'dTPR'
p100
F-0.32070054550674704
sS'TNR_non_protected'
p101
F0.7720588235294118
sS'average_precision'
p102
g12
(g16
S'\xd7\x1d\x82\xa5W\xe9\xe2?'
p103
tp104
Rp105
sS'TNR_protected'
p106
F0.6993006993006993
sS'accuracy'
p107
g12
(g16
S'\x8eu\x12\x86T\x8e\xe5?'
p108
tp109
Rp110
sa(dp111
S'TPR_non_protected'
p112
F0.4657534246575342
sS'auc'
p113
g12
(g16
S'M\xa8zP\xd9\xc2\xe5?'
p114
tp115
Rp116
sS'dTNR'
p117
F0.1655844155844156
sS'TPR_protected'
p118
F0.7657142857142857
sS'TNR_protected'
p119
F0.5238095238095238
sS'TNR_non_protected'
p120
F0.6893939393939394
sS'average_precision'
p121
g12
(g16
S"\x12\xb7\xcd8'\xe9\xe1?"
p122
tp123
Rp124
sS'dTPR'
p125
F-0.29996086105675146
sS'accuracy'
p126
g12
(g16
S'g\x14\xca\xa0\xfbf\xe4?'
p127
tp128
Rp129
sa(dp130
S'TPR_protected'
p131
F0.9875
sS'auc'
p132
g12
(g16
S'\xd1\xa6\x01m\x1a\xd0\xe6?'
p133
tp134
Rp135
sS'dTNR'
p136
F0.3839285714285714
sS'TPR_non_protected'
p137
F0.7727272727272727
sS'dTPR'
p138
F-0.21477272727272734
sS'TNR_non_protected'
p139
F0.5089285714285714
sS'average_precision'
p140
g12
(g16
S'Wn\xa1#I\xbb\xe0?'
p141
tp142
Rp143
sS'TNR_protected'
p144
F0.125
sS'accuracy'
p145
g12
(g16
S'm\xb2\xc9&\x9bl\xe2?'
p146
tp147
Rp148
sa(dp149
S'TPR_non_protected'
p150
F0.5813953488372093
sS'auc'
p151
g12
(g16
S'3\xc2\xe7\x1a[*\xe7?'
p152
tp153
Rp154
sS'dTNR'
p155
F-0.08883720930232553
sS'TPR_protected'
p156
F0.6790123456790124
sS'TNR_protected'
p157
F0.74
sS'TNR_non_protected'
p158
F0.6511627906976745
sS'average_precision'
p159
g12
(g16
S'\x03k\xb6\x87\x9a\xe1\xe2?'
p160
tp161
Rp162
sS'dTPR'
p163
F-0.09761699684180303
sS'accuracy'
p164
g12
(g16
S'\x8eu\x12\x86T\x8e\xe5?'
p165
tp166
Rp167
sa(dp168
S'TPR_protected'
p169
F0.6049382716049383
sS'auc'
p170
g12
(g16
S'\xab?Q\x8ff?\xe6?'
p171
tp172
Rp173
sS'dTNR'
p174
F-0.00015503875968991832
sS'TPR_non_protected'
p175
F0.5348837209302325
sS'dTPR'
p176
F-0.07005455067470578
sS'TNR_non_protected'
p177
F0.7131782945736435
sS'average_precision'
p178
g12
(g16
S'\xb0\xcd\x8c\x1b{B\xe2?'
p179
tp180
Rp181
sS'TNR_protected'
p182
F0.7133333333333334
sS'accuracy'
p183
g12
(g16
S'\xd4\xf4x\x89\xcb\xd3\xe4?'
p184
tp185
Rp186
sa(dp187
S'TPR_non_protected'
p188
F0.22784810126582278
sS'auc'
p189
g12
(g16
S'f\xa5\xcc\x0e\xacs\xe6?'
p190
tp191
Rp192
sS'dTNR'
p193
F-0.04336602994321115
sS'TPR_protected'
p194
F0.1242603550295858
sS'TNR_protected'
p195
F0.9664429530201343
sS'TNR_non_protected'
p196
F0.9230769230769231
sS'average_precision'
p197
g12
(g16
S'S\xb6Bt:S\xe0?'
p198
tp199
Rp200
sS'dTPR'
p201
F0.10358774623623698
sS'accuracy'
p202
g12
(g16
S'f\xf2#\xea\x02f\xe2?'
p203
tp204
Rp205
sasI1
(lp206
(dp207
S'TPR_protected'
p208
F0.024691358024691357
sS'auc'
p209
g12
(g16
S'\x9f\x1f\x02C\xb4\x94\xe5?'
p210
tp211
Rp212
sS'dTNR'
p213
F0.0
sS'TPR_non_protected'
p214
F0.08139534883720931
sS'dTPR'
p215
F0.05670399081251795
sS'TNR_non_protected'
p216
F1.0
sS'average_precision'
p217
g12
(g16
S'\x92C\x0e9\xe4\x90\xdf?'
p218
tp219
Rp220
sS'TNR_protected'
p221
F1.0
sS'accuracy'
p222
g12
(g16
S'\xa3\x8b.\xba\xe8\xa2\xe1?'
p223
tp224
Rp225
sa(dp226
S'TPR_non_protected'
p227
F0.7294117647058823
sS'auc'
p228
g12
(g16
S'\xfa\xb5\x87\\V\x0c\xe6?'
p229
tp230
Rp231
sS'dTNR'
p232
F0.12838505119808719
sS'TPR_protected'
p233
F0.8353658536585366
sS'TNR_protected'
p234
F0.4088050314465409
sS'TNR_non_protected'
p235
F0.5371900826446281
sS'average_precision'
p236
g12
(g16
S'W~\x11\xddg\x9b\xe1?'
p237
tp238
Rp239
sS'dTPR'
p240
F-0.10595408895265424
sS'accuracy'
p241
g12
(g16
S'\xf1\x1f\xde\xe5\xd5\xe6\xe3?'
p242
tp243
Rp244
sa(dp245
S'TPR_protected'
p246
F0.3588235294117647
sS'auc'
p247
g12
(g16
S'\xbca\xa3\x92\x80\x15\xe8?'
p248
tp249
Rp250
sS'dTNR'
p251
F0.08658760989572689
sS'TPR_non_protected'
p252
F0.20253164556962025
sS'dTPR'
p253
F-0.15629188384214446
sS'TNR_non_protected'
p254
F0.9701492537313433
sS'average_precision'
p255
g12
(g16
S'HY,\xb5\xfc-\xe2?'
p256
tp257
Rp258
sS'TNR_protected'
p259
F0.8835616438356164
sS'accuracy'
p260
g12
(g16
S'\xa9\x82\xd2}<S\xe4?'
p261
tp262
Rp263
sa(dp264
S'TPR_non_protected'
p265
F0.7662337662337663
sS'auc'
p266
g12
(g16
S'N+\x81T\x91B\xe7?'
p267
tp268
Rp269
sS'dTNR'
p270
F0.16690841276419394
sS'TPR_protected'
p271
F0.8245614035087719
sS'TNR_protected'
p272
F0.40789473684210525
sS'TNR_non_protected'
p273
F0.5748031496062992
sS'average_precision'
p274
g12
(g16
S'\xfd\xe8\xb0\xc4\x19\xeb\xe1?'
p275
tp276
Rp277
sS'dTPR'
p278
F-0.05832763727500567
sS'accuracy'
p279
g12
(g16
S'W\xf4g6pW\xe4?'
p280
tp281
Rp282
sa(dp283
S'TPR_protected'
p284
F0.0
sS'auc'
p285
g12
(g16
S'\xab\x19\x82\xf9\xb6\xe1\xe4?'
p286
tp287
Rp288
sS'dTNR'
p289
F-0.016129032258064502
sS'TPR_non_protected'
p290
F0.07317073170731707
sS'dTPR'
p291
F0.07317073170731707
sS'TNR_non_protected'
p292
F0.9838709677419355
sS'average_precision'
p293
g12
(g16
S'!\xfa$\xbe4\x8e\xde?'
p294
tp295
Rp296
sS'TNR_protected'
p297
F1.0
sS'accuracy'
p298
g12
(g16
S'\xba\x80\x969\xf9-\xe1?'
p299
tp300
Rp301
sa(dp302
S'TPR_non_protected'
p303
F0.3626373626373626
sS'auc'
p304
g12
(g16
S'\xa2{\xb7\x01\x96\x94\xe4?'
p305
tp306
Rp307
sS'dTNR'
p308
F0.2921250128508276
sS'TPR_protected'
p309
F0.6815286624203821
sS'TNR_protected'
p310
F0.5036496350364964
sS'TNR_non_protected'
p311
F0.795774647887324
sS'average_precision'
p312
g12
(g16
S'\x1e\xf8\x8c\xfd\x98:\xe1?'
p313
tp314
Rp315
sS'dTPR'
p316
F-0.3188912997830195
sS'accuracy'
p317
g12
(g16
S'\x8dSl\xcf[\x8d\xe3?'
p318
tp319
Rp320
sa(dp321
S'TPR_protected'
p322
F0.3170731707317073
sS'auc'
p323
g12
(g16
S'jUN\xc4\xc0\xbb\xe5?'
p324
tp325
Rp326
sS'dTNR'
p327
F0.02048273377592502
sS'TPR_non_protected'
p328
F0.3333333333333333
sS'dTPR'
p329
F0.016260162601625994
sS'TNR_non_protected'
p330
F0.889763779527559
sS'average_precision'
p331
g12
(g16
S'\xcc\x04d\xee\xfcl\xe1?'
p332
tp333
Rp334
sS'TNR_protected'
p335
F0.869281045751634
sS'accuracy'
p336
g12
(g16
S'\xc2\x07\x1f|\xf0\xc1\xe3?'
p337
tp338
Rp339
sa(dp340
S'TPR_non_protected'
p341
F0.5641025641025641
sS'auc'
p342
g12
(g16
S'\x10\xacs\xdc\xa8\x7f\xe7?'
p343
tp344
Rp345
sS'dTNR'
p346
F-0.1339031339031339
sS'TPR_protected'
p347
F0.4647058823529412
sS'TNR_protected'
p348
F0.8518518518518519
sS'TNR_non_protected'
p349
F0.717948717948718
sS'average_precision'
p350
g12
(g16
S'pooooo\xe2?'
p351
tp352
Rp353
sS'dTPR'
p354
F0.0993966817496229
sS'accuracy'
p355
g12
(g16
S'\xf34=^\xe2\xf2\xe4?'
p356
tp357
Rp358
sa(dp359
S'TPR_protected'
p360
F0.7664670658682635
sS'auc'
p361
g12
(g16
S'\x7f\x03:\x98!\x89\xe7?'
p362
tp363
Rp364
sS'dTNR'
p365
F0.3073261589403974
sS'TPR_non_protected'
p366
F0.43209876543209874
sS'dTPR'
p367
F-0.3343683004361648
sS'TNR_non_protected'
p368
F0.84375
sS'average_precision'
p369
g12
(g16
S'\xa0ty\x1d3\xb6\xe2?'
p370
tp371
Rp372
sS'TNR_protected'
p373
F0.5364238410596026
sS'accuracy'
p374
g12
(g16
S'`\x15\xecF\xb2_\xe5?'
p375
tp376
Rp377
sa(dp378
S'TPR_non_protected'
p379
F0.7215189873417721
sS'auc'
p380
g12
(g16
S's\xad<\x0e\xa7T\xe6?'
p381
tp382
Rp383
sS'dTNR'
p384
F0.39511688311688314
sS'TPR_protected'
p385
F0.9526627218934911
sS'TNR_protected'
p386
F0.11688311688311688
sS'TNR_non_protected'
p387
F0.512
sS'average_precision'
p388
g12
(g16
S'\x8d\xaclv\x0c\x99\xe0?'
p389
tp390
Rp391
sS'dTPR'
p392
F-0.231143734551719
sS'accuracy'
p393
g12
(g16
S'7\x92\xfd\xaa`7\xe2?'
p394
tp395
Rp396
sassS'weights'
p397
(dp398
I0
(lp399
(lp400
g12
(g16
S'tBI\xabX\xd2\xde?'
p401
tp402
Rp403
ag12
(g16
S'\xda^[\xaa\xd3\x96\xe0?'
p404
tp405
Rp406
ag12
(g16
S'rY\xb7@-\xbf\xda?'
p407
tp408
Rp409
ag12
(g16
S'\x0c\xa4G\xaa\xadL\xb0?'
p410
tp411
Rp412
ag12
(g16
S'\x15n}8\xe7M\xdc?'
p413
tp414
Rp415
ag12
(g16
S'\x80>\xe5p\x00\x7f\xb3?'
p416
tp417
Rp418
aa(lp419
g12
(g16
S'\xe9\xf7\x13\xa4\xf1\xc0\xdf?'
p420
tp421
Rp422
ag12
(g16
S'\x0b\x04\xf6-\x87\x1f\xe0?'
p423
tp424
Rp425
ag12
(g16
S'\xae\xcb\x90\xa28\xbd\xda?'
p426
tp427
Rp428
ag12
(g16
S'\xde\xb0\x0c\x06\xe4\x0e\xb4?'
p429
tp430
Rp431
ag12
(g16
S'\x83\xdd\xed7\x0cq\xda?'
p432
tp433
Rp434
ag12
(g16
S'M\xaa\xf8\x8f\x088\xb7?'
p435
tp436
Rp437
aa(lp438
g12
(g16
S'\x12\x88\x9a\xeeR\xf7\xde?'
p439
tp440
Rp441
ag12
(g16
S'\xf1\xbb\xb2\x88V\x84\xe0?'
p442
tp443
Rp444
ag12
(g16
S'\xf6I\xf1\xeb\x06\x8b\xda?'
p445
tp446
Rp447
ag12
(g16
S'n\xf8\xa4\n0\xb1\xb1?'
p448
tp449
Rp450
ag12
(g16
S'$\xbcR@\xe5\xf4\xdb?'
p451
tp452
Rp453
ag12
(g16
S'\xf1\xeeJD\x1fO\xb4?'
p454
tp455
Rp456
aa(lp457
g12
(g16
S'k\x1f\xe8\x12\xc6(\xdf?'
p458
tp459
Rp460
ag12
(g16
S'D\xf0\x8b\xf6\x9ck\xe0?'
p461
tp462
Rp463
ag12
(g16
S'Ei\xba\xbe\x94\x8b\xd7?'
p464
tp465
Rp466
ag12
(g16
S'\x93\xd8\xb6P\xc5t\xbe?'
p467
tp468
Rp469
ag12
(g16
S'\\[\x01\x0eGW\xd7?'
p470
tp471
Rp472
ag12
(g16
S'[\n-\xbe\xe5\xff\xc2?'
p473
tp474
Rp475
aa(lp476
g12
(g16
S'\xa5\xe4\x0bY\x91j\xdf?'
p477
tp478
Rp479
ag12
(g16
S'\xb7\rzS\xb7J\xe0?'
p480
tp481
Rp482
ag12
(g16
S'E\x17\xee\x7f\x84B\xda?'
p483
tp484
Rp485
ag12
(g16
S'~5wd3\xa0\xb4?'
p486
tp487
Rp488
ag12
(g16
S'V\xb5j\x8b"\x07\xdb?'
p489
tp490
Rp491
ag12
(g16
S'f\x98%n09\xb6?'
p492
tp493
Rp494
aa(lp495
g12
(g16
S'\x0e\xf7\xf7\x07\x1d\xdd\xdf?'
p496
tp497
Rp498
ag12
(g16
S'\x87\x04\x04|q\x11\xe0?'
p499
tp500
Rp501
ag12
(g16
S"0\t\xc9\xd0\xc6'\xda?"
p502
tp503
Rp504
ag12
(g16
S'p\xb7\xbb\xdcX\xd5\xb6?'
p505
tp506
Rp507
ag12
(g16
S'$\xbf\xbc,\r\xaf\xd9?'
p508
tp509
Rp510
ag12
(g16
S"\xa1'--W\xcf\xb9?"
p511
tp512
Rp513
aa(lp514
g12
(g16
S'\xf2G\xb8\xc0\xa0\xe9\xdf?'
p515
tp516
Rp517
ag12
(g16
S'\x11\xdc\xa3\x9f/\x0b\xe0?'
p518
tp519
Rp520
ag12
(g16
S'5B\x85\xe6\xbc\xac\xd9?'
p521
tp522
Rp523
ag12
(g16
S'\xfb\x16\xcch\x8f\xf3\xb8?'
p524
tp525
Rp526
ag12
(g16
S'_\xa0s9\x99\xba\xd8?'
p527
tp528
Rp529
ag12
(g16
S'\x1b_P\x17\x18o\xbd?'
p530
tp531
Rp532
aa(lp533
g12
(g16
S'T\xea\x96\xf8M4\xdf?'
p534
tp535
Rp536
ag12
(g16
S'\xdc\x8a\xb4\x03\xd9e\xe0?'
p537
tp538
Rp539
ag12
(g16
S'G\xc0\xf1\xdd,\xdd\xda?'
p540
tp541
Rp542
ag12
(g16
S'1\xa8\x94j\x84\\\xb1?'
p543
tp544
Rp545
ag12
(g16
S"\rX'/^\xb8\xdb?"
p546
tp547
Rp548
ag12
(g16
S'\x9e\xf6\x06aOM\xb4?'
p549
tp550
Rp551
aa(lp552
g12
(g16
S'\xcf\xe6\n\x13<\xfa\xde?'
p553
tp554
Rp555
ag12
(g16
S'\x8e\x8cz\xf6\xe1\x82\xe0?'
p556
tp557
Rp558
ag12
(g16
S'R\xb0\xf1\x9e\xa0\xbd\xda?'
p559
tp560
Rp561
ag12
(g16
S'\xfd\xd9d\xd0m\xf2\xb0?'
p562
tp563
Rp564
ag12
(g16
S'\xa4\x89B\xbaQ\x1b\xdc?'
p565
tp566
Rp567
ag12
(g16
S'\xdf=\xca\xca\xc8\xa9\xb3?'
p568
tp569
Rp570
aa(lp571
g12
(g16
S'+\t\xfc\xb39T\xde?'
p572
tp573
Rp574
ag12
(g16
S'Z\xfb\x01&\xe3\xd5\xe0?'
p575
tp576
Rp577
ag12
(g16
S's\n\xff\xf6\x04=\xda?'
p578
tp579
Rp580
ag12
(g16
S'\xdc\xfa\xf3\xf3\xd2\\\xb0?'
p581
tp582
Rp583
ag12
(g16
S'0\xd6\xae_\xaf\xd6\xdc?'
p584
tp585
Rp586
ag12
(g16
S'\x12\x82T\xb1[T\xb3?'
p587
tp588
Rp589
aasI1
(lp590
(lp591
g12
(g16
S'ky\xfd&\xc4"\xdd?'
p592
tp593
Rp594
ag12
(g16
S'FC\x81\xec\x9dn\xe1?'
p595
tp596
Rp597
ag12
(g16
S'}D\xf5\xc2L]\xd8?'
p598
tp599
Rp600
ag12
(g16
S'\xb7\xd3 \x90\xdd\x15\xb3?'
p601
tp602
Rp603
ag12
(g16
S'/\xab9\x16\xd7u\xdd?'
p604
tp605
Rp606
ag12
(g16
S'zm#\x0b\x93\x9d\xb5?'
p607
tp608
Rp609
aa(lp610
g12
(g16
S'/g\x9f\xb5\xfc\xe8\xdf?'
p611
tp612
Rp613
ag12
(g16
S'|L0\xa5\x81\x0b\xe0?'
p614
tp615
Rp616
ag12
(g16
S'\x1c\xb8\xca\xa2\xf0\x97\xd8?'
p617
tp618
Rp619
ag12
(g16
S'K\xbcRK0D\xbd?'
p620
tp621
Rp622
ag12
(g16
S'\x07\x92p\x96\xf1h\xd7?'
p623
tp624
Rp625
ag12
(g16
S'\xe0\r\xe0g#\\\xc1?'
p626
tp627
Rp628
aa(lp629
g12
(g16
S'Sj{\xfb\xc7\xf8\xde?'
p630
tp631
Rp632
ag12
(g16
S'\xcdJB\x02\x9c\x83\xe0?'
p633
tp634
Rp635
ag12
(g16
S'\xec\xd5\xa3p\xd1\x13\xda?'
p636
tp637
Rp638
ag12
(g16
S'\x9bQ^+\xda\x93\xb3?'
p639
tp640
Rp641
ag12
(g16
S'\xe3\xa9\xbb%_\x83\xdb?'
p642
tp643
Rp644
ag12
(g16
S'\xd5\xae#{c\x0f\xb6?'
p645
tp646
Rp647
aa(lp648
g12
(g16
S'\x15\x86\xbb\xf2\xd8\x0e\xe0?'
p649
tp650
Rp651
ag12
(g16
S'\xee\xf3\x88\x1aN\xe2\xdf?'
p652
tp653
Rp654
ag12
(g16
S'\xd2R\x11\xb5{\x0f\xd9?'
p655
tp656
Rp657
ag12
(g16
S'a\xe5\x96\xc1\xd88\xbc?'
p658
tp659
Rp660
ag12
(g16
S'\x8f#\xc4f8\xfc\xd7?'
p661
tp662
Rp663
ag12
(g16
S'mA\x13\xcfV\x98\xbf?'
p664
tp665
Rp666
aa(lp667
g12
(g16
S'\xf4\x84\x83/\xf2\xa8\xdd?'
p668
tp669
Rp670
ag12
(g16
S'\x83=>\xe8\x86+\xe1?'
p671
tp672
Rp673
ag12
(g16
S'\x85\xd3\x0cj\x10\x8e\xd9?'
p674
tp675
Rp676
ag12
(g16
S'\xbb\xc5\xda\x15\x87k\xb0?'
p677
tp678
Rp679
ag12
(g16
S'\xd2\x0cE\xf7\x1a\xb3\xdd?'
p680
tp681
Rp682
ag12
(g16
S'\xd6\xb8\xddd\xcb\x8f\xb2?'
p683
tp684
Rp685
aa(lp686
g12
(g16
S'\x83*\xaf\x0f\xd1\x92\xdf?'
p687
tp688
Rp689
ag12
(g16
S'\xc8j(x\x976\xe0?'
p690
tp691
Rp692
ag12
(g16
S'\xac$G\x85\xa1\x07\xd9?'
p693
tp694
Rp695
ag12
(g16
S'`\x17\xa0)\xbe,\xba?'
p696
tp697
Rp698
ag12
(g16
S'\xd8\xdc3PR\x84\xd9?'
p699
tp700
Rp701
ag12
(g16
S'\xdc\xe2s\x80r\xa3\xbb?'
p702
tp703
Rp704
aa(lp705
g12
(g16
S'\xd9G\x86\xd6\x14\xa9\xde?'
p706
tp707
Rp708
ag12
(g16
S'\x14\xdc\xbc\x94u\xab\xe0?'
p709
tp710
Rp711
ag12
(g16
S'$b\xfd\x94<\x8b\xda?'
p712
tp713
Rp714
ag12
(g16
S'\xd1\x96#\x06aw\xb0?'
p715
tp716
Rp717
ag12
(g16
S'\xda\xb2\xb0\x91\xdf\x94\xdc?'
p718
tp719
Rp720
ag12
(g16
S'?\x15$_.\x08\xb3?'
p721
tp722
Rp723
aa(lp724
g12
(g16
S'\xe6\xc3\xcbr\xe3P\xdf?'
p725
tp726
Rp727
ag12
(g16
S'\x13\x1e\x9aF\x8eW\xe0?'
p728
tp729
Rp730
ag12
(g16
S'@\xdbg^\xc2\xcd\xda?'
p731
tp732
Rp733
ag12
(g16
S'\x96\xa2\x8fQ\x84\x0c\xb2?'
p734
tp735
Rp736
ag12
(g16
S'\x16\xd0rT\r\xa9\xdb?'
p737
tp738
Rp739
ag12
(g16
S'F\xb0\x05\xe3<\x18\xb4?'
p740
tp741
Rp742
aa(lp743
g12
(g16
S'\x81,\x8e\xd8k~\xdf?'
p744
tp745
Rp746
ag12
(g16
S'\xc3\xe9\xb8\x13\xca@\xe0?'
p747
tp748
Rp749
ag12
(g16
S'\x1d\xf9)B\x89\x96\xd8?'
p750
tp751
Rp752
ag12
(g16
S'\x90\xcd\x90Y\x8a\x9f\xbb?'
p753
tp754
Rp755
ag12
(g16
S'\x03NT\xc7\xb3{\xd8?'
p756
tp757
Rp758
ag12
(g16
S'\x03\x0b;\xc0\xc0\x0b\xc0?'
p759
tp760
Rp761
aa(lp762
g12
(g16
S';i\xb2\xf2."\xe0?'
p763
tp764
Rp765
ag12
(g16
S'\x80-\x9b\x1a\xa2\xbb\xdf?'
p766
tp767
Rp768
ag12
(g16
S'\xc3\xcd\x9e#\x9d@\xd9?'
p769
tp770
Rp771
ag12
(g16
S'\xcd\x12\x18\x07\x03\x0f\xbc?'
p772
tp773
Rp774
ag12
(g16
S'\xbeCW&\xff\xb8\xd7?'
p775
tp776
Rp777
ag12
(g16
S'\x89\xd3\x87\xe8E\x05\xc0?'
p778
tp779
Rp780
aassb.