ccopy_reg
_reconstructor
p0
(c__main__
my_dict
p1
c__builtin__
object
p2
Ntp3
Rp4
(dp5
S'performance'
p6
(dp7
I0
(lp8
(dp9
S'TPR_protected'
p10
F0.3333333333333333
sS'auc'
p11
cnumpy.core.multiarray
scalar
p12
(cnumpy
dtype
p13
(S'f8'
p14
I0
I1
tp15
Rp16
(I3
S'<'
p17
NNNI-1
I-1
I0
tp18
bS'\xebO\xd4\xa3\xd9\x8f\xe6?'
p19
tp20
Rp21
sS'dTNR'
p22
F-0.2688372093023256
sS'TPR_non_protected'
p23
F0.5813953488372093
sS'dTPR'
p24
F0.24806201550387602
sS'TNR_non_protected'
p25
F0.6511627906976745
sS'average_precision'
p26
g12
(g16
S'~$\xcfN\x88i\xe1?'
p27
tp28
Rp29
sS'TNR_protected'
p30
F0.92
sS'accuracy'
p31
g12
(g16
S'\xcc\xd3\xf4x\x89\xcb\xe3?'
p32
tp33
Rp34
sa(dp35
S'TPR_non_protected'
p36
F0.5068493150684932
sS'auc'
p37
g12
(g16
S'\xd1\rEK\t\x96\xe5?'
p38
tp39
Rp40
sS'dTNR'
p41
F0.1028138528138528
sS'TPR_protected'
p42
F0.7542857142857143
sS'TNR_protected'
p43
F0.5714285714285714
sS'TNR_non_protected'
p44
F0.6742424242424242
sS'average_precision'
p45
g12
(g16
S'2\x9e\xb2j\xb12\xe2?'
p46
tp47
Rp48
sS'dTPR'
p49
F-0.24743639921722116
sS'accuracy'
p50
g12
(g16
S'\xc4\xd4\x16\x1f@\xc4\xe4?'
p51
tp52
Rp53
sa(dp54
S'TPR_protected'
p55
F0.1242603550295858
sS'auc'
p56
g12
(g16
S'\xd9|V\xe6\xca\xf1\xe5?'
p57
tp58
Rp59
sS'dTNR'
p60
F-0.051058337635518924
sS'TPR_non_protected'
p61
F0.26582278481012656
sS'dTPR'
p62
F0.14156242978054076
sS'TNR_non_protected'
p63
F0.9153846153846154
sS'average_precision'
p64
g12
(g16
S'fm\x0f}\xd2n\xe0?'
p65
tp66
Rp67
sS'TNR_protected'
p68
F0.9664429530201343
sS'accuracy'
p69
g12
(g16
S'\x852\xe8\xbe\x19\x85\xe2?'
p70
tp71
Rp72
sa(dp73
S'TPR_non_protected'
p74
F0.75
sS'auc'
p75
g12
(g16
S'c\x8c1\xc6\x18\xe3\xe6?'
p76
tp77
Rp78
sS'dTNR'
p79
F-0.008928571428571397
sS'TPR_protected'
p80
F0.7
sS'TNR_protected'
p81
F0.5892857142857143
sS'TNR_non_protected'
p82
F0.5803571428571429
sS'average_precision'
p83
g12
(g16
S'U\x05T\x84\xe7%\xe2?'
p84
tp85
Rp86
sS'dTPR'
p87
F0.050000000000000044
sS'accuracy'
p88
g12
(g16
S'\xba\xe8\xa2\x8b.\xba\xe4?'
p89
tp90
Rp91
sa(dp92
S'TPR_protected'
p93
F0.3090909090909091
sS'auc'
p94
g12
(g16
S'\x05\x08-\xe9\xba\x8f\xe5?'
p95
tp96
Rp97
sS'dTNR'
p98
F-0.03030766875861013
sS'TPR_non_protected'
p99
F0.42857142857142855
sS'dTPR'
p100
F0.11948051948051946
sS'TNR_non_protected'
p101
F0.8633093525179856
sS'average_precision'
p102
g12
(g16
S'\x16\xa7\xd0\x08\xb2\xd6\xe1?'
p103
tp104
Rp105
sS'TNR_protected'
p106
F0.8936170212765957
sS'accuracy'
p107
g12
(g16
S'\xc83Ea\xc7$\xe4?'
p108
tp109
Rp110
sa(dp111
S'TPR_non_protected'
p112
F0.1724137931034483
sS'auc'
p113
g12
(g16
S'b\x1f\x17\xf6q!\xe7?'
p114
tp115
Rp116
sS'dTNR'
p117
F0.02813299232736577
sS'TPR_protected'
p118
F0.32919254658385094
sS'TNR_protected'
p119
F0.9130434782608695
sS'TNR_non_protected'
p120
F0.9411764705882353
sS'average_precision'
p121
g12
(g16
S'}\xecl\x8b\xeb\x9c\xe1?'
p122
tp123
Rp124
sS'dTPR'
p125
F-0.15677875348040266
sS'accuracy'
p126
g12
(g16
S'\xd1E\x17]t\xd1\xe3?'
p127
tp128
Rp129
sa(dp130
S'TPR_protected'
p131
F0.7657142857142857
sS'auc'
p132
g12
(g16
S'\xc2\x19\x99l\r\x05\xe6?'
p133
tp134
Rp135
sS'dTNR'
p136
F-0.020278248370039553
sS'TPR_non_protected'
p137
F0.7027027027027027
sS'dTPR'
p138
F-0.06301158301158294
sS'TNR_non_protected'
p139
F0.5426356589147286
sS'average_precision'
p140
g12
(g16
S'7WCne\x1b\xe2?'
p141
tp142
Rp143
sS'TNR_protected'
p144
F0.5629139072847682
sS'accuracy'
p145
g12
(g16
S'w[\x13X\xaa\xa0\xe4?'
p146
tp147
Rp148
sa(dp149
S'TPR_non_protected'
p150
F0.4430379746835443
sS'auc'
p151
g12
(g16
S'N\xf8\xd1\xbc,G\xe7?'
p152
tp153
Rp154
sS'dTNR'
p155
F-0.10461760461760461
sS'TPR_protected'
p156
F0.3352941176470588
sS'TNR_protected'
p157
F0.922077922077922
sS'TNR_non_protected'
p158
F0.8174603174603174
sS'average_precision'
p159
g12
(g16
S'0\xa0\xa1\xcd\xe3\x0f\xe2?'
p160
tp161
Rp162
sS'dTPR'
p163
F0.10774385703648548
sS'accuracy'
p164
g12
(g16
S'\x9fG\xac\xdc\xb8b\xe4?'
p165
tp166
Rp167
sa(dp168
S'TPR_protected'
p169
F0.3333333333333333
sS'auc'
p170
g12
(g16
S'\xc9m\xeb~@\x15\xe6?'
p171
tp172
Rp173
sS'dTNR'
p174
F-0.08108802961744133
sS'TPR_non_protected'
p175
F0.3953488372093023
sS'dTPR'
p176
F0.06201550387596899
sS'TNR_non_protected'
p177
F0.7720588235294118
sS'average_precision'
p178
g12
(g16
S'#c=]J\xda\xe0?'
p179
tp180
Rp181
sS'TNR_protected'
p182
F0.8531468531468531
sS'accuracy'
p183
g12
(g16
S'!s\xbd\xe6\x8b \xe3?'
p184
tp185
Rp186
sa(dp187
S'TPR_non_protected'
p188
F0.5348837209302325
sS'auc'
p189
g12
(g16
S'\r\x10\xd2\x8f]\xef\xe5?'
p190
tp191
Rp192
sS'dTNR'
p193
F-0.1268217054263565
sS'TPR_protected'
p194
F0.4506172839506173
sS'TNR_protected'
p195
F0.84
sS'TNR_non_protected'
p196
F0.7131782945736435
sS'average_precision'
p197
g12
(g16
S'Q\\\x888\xf9\xfb\xe1?'
p198
tp199
Rp200
sS'dTPR'
p201
F0.08426643697961522
sS'accuracy'
p202
g12
(g16
S'w4,\x0b\x87v\xe4?'
p203
tp204
Rp205
sasI1
(lp206
(dp207
S'TPR_protected'
p208
F0.2682926829268293
sS'auc'
p209
g12
(g16
S'\x00\x15\xb3\xbd\x0cR\xe5?'
p210
tp211
Rp212
sS'dTNR'
p213
F-0.008337193144974497
sS'TPR_non_protected'
p214
F0.3333333333333333
sS'dTPR'
p215
F0.06504065040650403
sS'TNR_non_protected'
p216
F0.8740157480314961
sS'average_precision'
p217
g12
(g16
S'4\xd57\x8d!\xfa\xe0?'
p218
tp219
Rp220
sS'TNR_protected'
p221
F0.8823529411764706
sS'accuracy'
p222
g12
(g16
S'F\x17]t\xd1E\xe3?'
p223
tp224
Rp225
sa(dp226
S'TPR_non_protected'
p227
F0.46153846153846156
sS'auc'
p228
g12
(g16
S'J\x86\x8f\x17\xc4\xa7\xe4?'
p229
tp230
Rp231
sS'dTNR'
p232
F0.13411123676364756
sS'TPR_protected'
p233
F0.5414012738853503
sS'TNR_protected'
p234
F0.5912408759124088
sS'TNR_non_protected'
p235
F0.7253521126760564
sS'average_precision'
p236
g12
(g16
S'\xdc\xadQ\x18\xcb\xb8\xe0?'
p237
tp238
Rp239
sS'dTPR'
p240
F-0.07986281234688875
sS'accuracy'
p241
g12
(g16
S'\xe2\xf24=^\xe2\xe2?'
p242
tp243
Rp244
sa(dp245
S'TPR_protected'
p246
F0.0
sS'auc'
p247
g12
(g16
S'\xb8\xf5\xd9\x8c\xef\x8f\xe4?'
p248
tp249
Rp250
sS'dTNR'
p251
F-0.016129032258064502
sS'TPR_non_protected'
p252
F0.07317073170731707
sS'dTPR'
p253
F0.07317073170731707
sS'TNR_non_protected'
p254
F0.9838709677419355
sS'average_precision'
p255
g12
(g16
S'!\xfa$\xbe4\x8e\xde?'
p256
tp257
Rp258
sS'TNR_protected'
p259
F1.0
sS'accuracy'
p260
g12
(g16
S'\xba\x80\x969\xf9-\xe1?'
p261
tp262
Rp263
sa(dp264
S'TPR_non_protected'
p265
F0.6941176470588235
sS'auc'
p266
g12
(g16
S'\\Y\x1a\xddk\xf8\xe5?'
p267
tp268
Rp269
sS'dTNR'
p270
F-0.05904672800041577
sS'TPR_protected'
p271
F0.6219512195121951
sS'TNR_protected'
p272
F0.6540880503144654
sS'TNR_non_protected'
p273
F0.5950413223140496
sS'average_precision'
p274
g12
(g16
S'k*$f\xd4\xe4\xe1?'
p275
tp276
Rp277
sS'dTPR'
p278
F0.07216642754662839
sS'accuracy'
p279
g12
(g16
S'\x9fG\xac\xdc\xb8b\xe4?'
p280
tp281
Rp282
sa(dp283
S'TPR_protected'
p284
F0.8070175438596491
sS'auc'
p285
g12
(g16
S'\xf6\x0c\xfa\x00g(\xe7?'
p286
tp287
Rp288
sS'dTNR'
p289
F0.17996270203066722
sS'TPR_non_protected'
p290
F0.7272727272727273
sS'dTPR'
p291
F-0.07974481658692179
sS'TNR_non_protected'
p292
F0.6141732283464567
sS'average_precision'
p293
g12
(g16
S'^V\xf7<#\n\xe2?'
p294
tp295
Rp296
sS'TNR_protected'
p297
F0.4342105263157895
sS'accuracy'
p298
g12
(g16
S'\x86T\x8eu\x12\x86\xe4?'
p299
tp300
Rp301
sa(dp302
S'TPR_non_protected'
p303
F0.08139534883720931
sS'auc'
p304
g12
(g16
S'\xbe\xcdx\x00\xd6Y\xe3?'
p305
tp306
Rp307
sS'dTNR'
p308
F0.0
sS'TPR_protected'
p309
F0.006172839506172839
sS'TNR_protected'
p310
F1.0
sS'TNR_non_protected'
p311
F1.0
sS'average_precision'
p312
g12
(g16
S"(\x9f|\xf2\xc9'\xdf?"
p313
tp314
Rp315
sS'dTPR'
p316
F0.07522250933103647
sS'accuracy'
p317
g12
(g16
S't\xd1E\x17]t\xe1?'
p318
tp319
Rp320
sa(dp321
S'TPR_protected'
p322
F0.36470588235294116
sS'auc'
p323
g12
(g16
S')L\xdb\x17\n\xd3\xe6?'
p324
tp325
Rp326
sS'dTNR'
p327
F-0.17711301044634375
sS'TPR_non_protected'
p328
F0.5641025641025641
sS'dTPR'
p329
F0.19939668174962294
sS'TNR_non_protected'
p330
F0.717948717948718
sS'average_precision'
p331
g12
(g16
S'9\xba\xd1j\x80\xea\xe1?'
p332
tp333
Rp334
sS'TNR_protected'
p335
F0.8950617283950617
sS'accuracy'
p336
g12
(g16
S'W\xf4g6pW\xe4?'
p337
tp338
Rp339
sa(dp340
S'TPR_non_protected'
p341
F0.2911392405063291
sS'auc'
p342
g12
(g16
S'\x90\xe7\xbfQ\x03\r\xe7?'
p343
tp344
Rp345
sS'dTNR'
p346
F-0.04722960539766918
sS'TPR_protected'
p347
F0.14705882352941177
sS'TNR_protected'
p348
F0.9726027397260274
sS'TNR_non_protected'
p349
F0.9253731343283582
sS'average_precision'
p350
g12
(g16
S'`\x9aR\xe7=\xef\xe0?'
p351
tp352
Rp353
sS'dTPR'
p354
F0.14408041697691734
sS'accuracy'
p355
g12
(g16
S'\x89\x95\x1bW\x8c\xfe\xe2?'
p356
tp357
Rp358
sa(dp359
S'TPR_protected'
p360
F0.863905325443787
sS'auc'
p361
g12
(g16
S'\x8d\xf0\xb9\xc6\x96J\xe6?'
p362
tp363
Rp364
sS'dTNR'
p365
F0.08992207792207796
sS'TPR_non_protected'
p366
F0.7215189873417721
sS'dTPR'
p367
F-0.14238633810201484
sS'TNR_non_protected'
p368
F0.512
sS'average_precision'
p369
g12
(g16
S'\xdd}\x17\xff\xab\xcb\xe1?'
p370
tp371
Rp372
sS'TNR_protected'
p373
F0.42207792207792205
sS'accuracy'
p374
g12
(g16
S')\x94A\xf7\xcd(\xe4?'
p375
tp376
Rp377
sa(dp378
S'TPR_non_protected'
p379
F0.4074074074074074
sS'auc'
p380
g12
(g16
S'\x07\xa3\x9c\xb4\xda\x8b\xe7?'
p381
tp382
Rp383
sS'dTNR'
p384
F0.1441432119205298
sS'TPR_protected'
p385
F0.6706586826347305
sS'TNR_protected'
p386
F0.7152317880794702
sS'TNR_non_protected'
p387
F0.859375
sS'average_precision'
p388
g12
(g16
S'\\\x82\xc8\xc5wl\xe3?'
p389
tp390
Rp391
sS'dTPR'
p392
F-0.2632512752273231
sS'accuracy'
p393
g12
(g16
S'\x0bv#\xd9\xaf\n\xe6?'
p394
tp395
Rp396
sassS'weights'
p397
(dp398
I0
(lp399
(lp400
g12
(g16
S'T\xea\x96\xf8M4\xdf?'
p401
tp402
Rp403
ag12
(g16
S'\xdc\x8a\xb4\x03\xd9e\xe0?'
p404
tp405
Rp406
ag12
(g16
S'G\xc0\xf1\xdd,\xdd\xda?'
p407
tp408
Rp409
ag12
(g16
S'1\xa8\x94j\x84\\\xb1?'
p410
tp411
Rp412
ag12
(g16
S"\rX'/^\xb8\xdb?"
p413
tp414
Rp415
ag12
(g16
S'\x9e\xf6\x06aOM\xb4?'
p416
tp417
Rp418
aa(lp419
g12
(g16
S'\x0e\xf7\xf7\x07\x1d\xdd\xdf?'
p420
tp421
Rp422
ag12
(g16
S'\x87\x04\x04|q\x11\xe0?'
p423
tp424
Rp425
ag12
(g16
S"0\t\xc9\xd0\xc6'\xda?"
p426
tp427
Rp428
ag12
(g16
S'p\xb7\xbb\xdcX\xd5\xb6?'
p429
tp430
Rp431
ag12
(g16
S'$\xbf\xbc,\r\xaf\xd9?'
p432
tp433
Rp434
ag12
(g16
S"\xa1'--W\xcf\xb9?"
p435
tp436
Rp437
aa(lp438
g12
(g16
S'+\t\xfc\xb39T\xde?'
p439
tp440
Rp441
ag12
(g16
S'Z\xfb\x01&\xe3\xd5\xe0?'
p442
tp443
Rp444
ag12
(g16
S's\n\xff\xf6\x04=\xda?'
p445
tp446
Rp447
ag12
(g16
S'\xdc\xfa\xf3\xf3\xd2\\\xb0?'
p448
tp449
Rp450
ag12
(g16
S'0\xd6\xae_\xaf\xd6\xdc?'
p451
tp452
Rp453
ag12
(g16
S'\x12\x82T\xb1[T\xb3?'
p454
tp455
Rp456
aa(lp457
g12
(g16
S'\xf2G\xb8\xc0\xa0\xe9\xdf?'
p458
tp459
Rp460
ag12
(g16
S'\x11\xdc\xa3\x9f/\x0b\xe0?'
p461
tp462
Rp463
ag12
(g16
S'5B\x85\xe6\xbc\xac\xd9?'
p464
tp465
Rp466
ag12
(g16
S'\xfb\x16\xcch\x8f\xf3\xb8?'
p467
tp468
Rp469
ag12
(g16
S'_\xa0s9\x99\xba\xd8?'
p470
tp471
Rp472
ag12
(g16
S'\x1b_P\x17\x18o\xbd?'
p473
tp474
Rp475
aa(lp476
g12
(g16
S'\x12\x88\x9a\xeeR\xf7\xde?'
p477
tp478
Rp479
ag12
(g16
S'\xf1\xbb\xb2\x88V\x84\xe0?'
p480
tp481
Rp482
ag12
(g16
S'\xf6I\xf1\xeb\x06\x8b\xda?'
p483
tp484
Rp485
ag12
(g16
S'n\xf8\xa4\n0\xb1\xb1?'
p486
tp487
Rp488
ag12
(g16
S'$\xbcR@\xe5\xf4\xdb?'
p489
tp490
Rp491
ag12
(g16
S'\xf1\xeeJD\x1fO\xb4?'
p492
tp493
Rp494
aa(lp495
g12
(g16
S'k\x1f\xe8\x12\xc6(\xdf?'
p496
tp497
Rp498
ag12
(g16
S'D\xf0\x8b\xf6\x9ck\xe0?'
p499
tp500
Rp501
ag12
(g16
S'Ei\xba\xbe\x94\x8b\xd7?'
p502
tp503
Rp504
ag12
(g16
S'\x93\xd8\xb6P\xc5t\xbe?'
p505
tp506
Rp507
ag12
(g16
S'\\[\x01\x0eGW\xd7?'
p508
tp509
Rp510
ag12
(g16
S'[\n-\xbe\xe5\xff\xc2?'
p511
tp512
Rp513
aa(lp514
g12
(g16
S'\xe9\xf7\x13\xa4\xf1\xc0\xdf?'
p515
tp516
Rp517
ag12
(g16
S'\x0b\x04\xf6-\x87\x1f\xe0?'
p518
tp519
Rp520
ag12
(g16
S'\xae\xcb\x90\xa28\xbd\xda?'
p521
tp522
Rp523
ag12
(g16
S'\xde\xb0\x0c\x06\xe4\x0e\xb4?'
p524
tp525
Rp526
ag12
(g16
S'\x83\xdd\xed7\x0cq\xda?'
p527
tp528
Rp529
ag12
(g16
S'M\xaa\xf8\x8f\x088\xb7?'
p530
tp531
Rp532
aa(lp533
g12
(g16
S'tBI\xabX\xd2\xde?'
p534
tp535
Rp536
ag12
(g16
S'\xda^[\xaa\xd3\x96\xe0?'
p537
tp538
Rp539
ag12
(g16
S'rY\xb7@-\xbf\xda?'
p540
tp541
Rp542
ag12
(g16
S'\x0c\xa4G\xaa\xadL\xb0?'
p543
tp544
Rp545
ag12
(g16
S'\x15n}8\xe7M\xdc?'
p546
tp547
Rp548
ag12
(g16
S'\x80>\xe5p\x00\x7f\xb3?'
p549
tp550
Rp551
aa(lp552
g12
(g16
S'\xa5\xe4\x0bY\x91j\xdf?'
p553
tp554
Rp555
ag12
(g16
S'\xb7\rzS\xb7J\xe0?'
p556
tp557
Rp558
ag12
(g16
S'E\x17\xee\x7f\x84B\xda?'
p559
tp560
Rp561
ag12
(g16
S'~5wd3\xa0\xb4?'
p562
tp563
Rp564
ag12
(g16
S'V\xb5j\x8b"\x07\xdb?'
p565
tp566
Rp567
ag12
(g16
S'f\x98%n09\xb6?'
p568
tp569
Rp570
aa(lp571
g12
(g16
S'\xcf\xe6\n\x13<\xfa\xde?'
p572
tp573
Rp574
ag12
(g16
S'\x8e\x8cz\xf6\xe1\x82\xe0?'
p575
tp576
Rp577
ag12
(g16
S'R\xb0\xf1\x9e\xa0\xbd\xda?'
p578
tp579
Rp580
ag12
(g16
S'\xfd\xd9d\xd0m\xf2\xb0?'
p581
tp582
Rp583
ag12
(g16
S'\xa4\x89B\xbaQ\x1b\xdc?'
p584
tp585
Rp586
ag12
(g16
S'\xdf=\xca\xca\xc8\xa9\xb3?'
p587
tp588
Rp589
aasI1
(lp590
(lp591
g12
(g16
S'\xd9G\x86\xd6\x14\xa9\xde?'
p592
tp593
Rp594
ag12
(g16
S'\x14\xdc\xbc\x94u\xab\xe0?'
p595
tp596
Rp597
ag12
(g16
S'$b\xfd\x94<\x8b\xda?'
p598
tp599
Rp600
ag12
(g16
S'\xd1\x96#\x06aw\xb0?'
p601
tp602
Rp603
ag12
(g16
S'\xda\xb2\xb0\x91\xdf\x94\xdc?'
p604
tp605
Rp606
ag12
(g16
S'?\x15$_.\x08\xb3?'
p607
tp608
Rp609
aa(lp610
g12
(g16
S'\x83*\xaf\x0f\xd1\x92\xdf?'
p611
tp612
Rp613
ag12
(g16
S'\xc8j(x\x976\xe0?'
p614
tp615
Rp616
ag12
(g16
S'\xac$G\x85\xa1\x07\xd9?'
p617
tp618
Rp619
ag12
(g16
S'`\x17\xa0)\xbe,\xba?'
p620
tp621
Rp622
ag12
(g16
S'\xd8\xdc3PR\x84\xd9?'
p623
tp624
Rp625
ag12
(g16
S'\xdc\xe2s\x80r\xa3\xbb?'
p626
tp627
Rp628
aa(lp629
g12
(g16
S'\xf4\x84\x83/\xf2\xa8\xdd?'
p630
tp631
Rp632
ag12
(g16
S'\x83=>\xe8\x86+\xe1?'
p633
tp634
Rp635
ag12
(g16
S'\x85\xd3\x0cj\x10\x8e\xd9?'
p636
tp637
Rp638
ag12
(g16
S'\xbb\xc5\xda\x15\x87k\xb0?'
p639
tp640
Rp641
ag12
(g16
S'\xd2\x0cE\xf7\x1a\xb3\xdd?'
p642
tp643
Rp644
ag12
(g16
S'\xd6\xb8\xddd\xcb\x8f\xb2?'
p645
tp646
Rp647
aa(lp648
g12
(g16
S'/g\x9f\xb5\xfc\xe8\xdf?'
p649
tp650
Rp651
ag12
(g16
S'|L0\xa5\x81\x0b\xe0?'
p652
tp653
Rp654
ag12
(g16
S'\x1c\xb8\xca\xa2\xf0\x97\xd8?'
p655
tp656
Rp657
ag12
(g16
S'K\xbcRK0D\xbd?'
p658
tp659
Rp660
ag12
(g16
S'\x07\x92p\x96\xf1h\xd7?'
p661
tp662
Rp663
ag12
(g16
S'\xe0\r\xe0g#\\\xc1?'
p664
tp665
Rp666
aa(lp667
g12
(g16
S'\x15\x86\xbb\xf2\xd8\x0e\xe0?'
p668
tp669
Rp670
ag12
(g16
S'\xee\xf3\x88\x1aN\xe2\xdf?'
p671
tp672
Rp673
ag12
(g16
S'\xd2R\x11\xb5{\x0f\xd9?'
p674
tp675
Rp676
ag12
(g16
S'a\xe5\x96\xc1\xd88\xbc?'
p677
tp678
Rp679
ag12
(g16
S'\x8f#\xc4f8\xfc\xd7?'
p680
tp681
Rp682
ag12
(g16
S'mA\x13\xcfV\x98\xbf?'
p683
tp684
Rp685
aa(lp686
g12
(g16
S'ky\xfd&\xc4"\xdd?'
p687
tp688
Rp689
ag12
(g16
S'FC\x81\xec\x9dn\xe1?'
p690
tp691
Rp692
ag12
(g16
S'}D\xf5\xc2L]\xd8?'
p693
tp694
Rp695
ag12
(g16
S'\xb7\xd3 \x90\xdd\x15\xb3?'
p696
tp697
Rp698
ag12
(g16
S'/\xab9\x16\xd7u\xdd?'
p699
tp700
Rp701
ag12
(g16
S'zm#\x0b\x93\x9d\xb5?'
p702
tp703
Rp704
aa(lp705
g12
(g16
S'\xe6\xc3\xcbr\xe3P\xdf?'
p706
tp707
Rp708
ag12
(g16
S'\x13\x1e\x9aF\x8eW\xe0?'
p709
tp710
Rp711
ag12
(g16
S'@\xdbg^\xc2\xcd\xda?'
p712
tp713
Rp714
ag12
(g16
S'\x96\xa2\x8fQ\x84\x0c\xb2?'
p715
tp716
Rp717
ag12
(g16
S'\x16\xd0rT\r\xa9\xdb?'
p718
tp719
Rp720
ag12
(g16
S'F\xb0\x05\xe3<\x18\xb4?'
p721
tp722
Rp723
aa(lp724
g12
(g16
S'Sj{\xfb\xc7\xf8\xde?'
p725
tp726
Rp727
ag12
(g16
S'\xcdJB\x02\x9c\x83\xe0?'
p728
tp729
Rp730
ag12
(g16
S'\xec\xd5\xa3p\xd1\x13\xda?'
p731
tp732
Rp733
ag12
(g16
S'\x9bQ^+\xda\x93\xb3?'
p734
tp735
Rp736
ag12
(g16
S'\xe3\xa9\xbb%_\x83\xdb?'
p737
tp738
Rp739
ag12
(g16
S'\xd5\xae#{c\x0f\xb6?'
p740
tp741
Rp742
aa(lp743
g12
(g16
S';i\xb2\xf2."\xe0?'
p744
tp745
Rp746
ag12
(g16
S'\x80-\x9b\x1a\xa2\xbb\xdf?'
p747
tp748
Rp749
ag12
(g16
S'\xc3\xcd\x9e#\x9d@\xd9?'
p750
tp751
Rp752
ag12
(g16
S'\xcd\x12\x18\x07\x03\x0f\xbc?'
p753
tp754
Rp755
ag12
(g16
S'\xbeCW&\xff\xb8\xd7?'
p756
tp757
Rp758
ag12
(g16
S'\x89\xd3\x87\xe8E\x05\xc0?'
p759
tp760
Rp761
aa(lp762
g12
(g16
S'\x81,\x8e\xd8k~\xdf?'
p763
tp764
Rp765
ag12
(g16
S'\xc3\xe9\xb8\x13\xca@\xe0?'
p766
tp767
Rp768
ag12
(g16
S'\x1d\xf9)B\x89\x96\xd8?'
p769
tp770
Rp771
ag12
(g16
S'\x90\xcd\x90Y\x8a\x9f\xbb?'
p772
tp773
Rp774
ag12
(g16
S'\x03NT\xc7\xb3{\xd8?'
p775
tp776
Rp777
ag12
(g16
S'\x03\x0b;\xc0\xc0\x0b\xc0?'
p778
tp779
Rp780
aassb.