ccopy_reg
_reconstructor
p0
(c__main__
my_dict
p1
c__builtin__
object
p2
Ntp3
Rp4
(dp5
S'performance'
p6
(dp7
I0
(lp8
(dp9
S'TPR_protected'
p10
F0.5142857142857142
sS'auc'
p11
cnumpy.core.multiarray
scalar
p12
(cnumpy
dtype
p13
(S'f8'
p14
I0
I1
tp15
Rp16
(I3
S'<'
p17
NNNI-1
I-1
I0
tp18
bS'\xec\xf7\x18\xca`\x03\xe7?'
p19
tp20
Rp21
sS'dTNR'
p22
F0.12115611684378047
sS'TPR_non_protected'
p23
F0.25675675675675674
sS'dTPR'
p24
F-0.2575289575289575
sS'TNR_non_protected'
p25
F0.9224806201550387
sS'average_precision'
p26
g12
(g16
S"{\xc9\x14'_\xb7\xe2?"
p27
tp28
Rp29
sS'TNR_protected'
p30
F0.8013245033112583
sS'accuracy'
p31
g12
(g16
S'%\x83\xe1N\x8d\x1c\xe5?'
p32
tp33
Rp34
sa(dp35
S'TPR_non_protected'
p36
F0.39080459770114945
sS'auc'
p37
g12
(g16
S'\xca\x9e\xcb5LA\xe7?'
p38
tp39
Rp40
sS'dTNR'
p41
F0.040920716112531896
sS'TPR_protected'
p42
F0.5900621118012422
sS'TNR_protected'
p43
F0.782608695652174
sS'TNR_non_protected'
p44
F0.8235294117647058
sS'average_precision'
p45
g12
(g16
S'N_\x81j\x99\xd1\xe2?'
p46
tp47
Rp48
sS'dTPR'
p49
F-0.1992575141000928
sS'accuracy'
p50
g12
(g16
S'e\x93M6\xd9d\xe5?'
p51
tp52
Rp53
sa(dp54
S'TPR_protected'
p55
F0.5028571428571429
sS'auc'
p56
g12
(g16
S'\xb8g\xd0\x078C\xe5?'
p57
tp58
Rp59
sS'dTNR'
p60
F0.09554730983302406
sS'TPR_non_protected'
p61
F0.2328767123287671
sS'dTPR'
p62
F-0.2699804305283758
sS'TNR_non_protected'
p63
F0.803030303030303
sS'average_precision'
p64
g12
(g16
S'4M\x85n\xde\xdb\xe0?'
p65
tp66
Rp67
sS'TNR_protected'
p68
F0.7074829931972789
sS'accuracy'
p69
g12
(g16
S'!s\xbd\xe6\x8b \xe3?'
p70
tp71
Rp72
sa(dp73
S'TPR_non_protected'
p74
F0.5909090909090909
sS'auc'
p75
g12
(g16
S'\xffS\xcc\xf62H\xe6?'
p76
tp77
Rp78
sS'dTNR'
p79
F0.261904761904762
sS'TPR_protected'
p80
F0.75625
sS'TNR_protected'
p81
F0.5059523809523809
sS'TNR_non_protected'
p82
F0.7678571428571429
sS'average_precision'
p83
g12
(g16
S'"!\xe1\xc5c=\xe2?'
p84
tp85
Rp86
sS'dTPR'
p87
F-0.16534090909090904
sS'accuracy'
p88
g12
(g16
S'\xd9d\x93M6\xd9\xe4?'
p89
tp90
Rp91
sa(dp92
S'TPR_protected'
p93
F0.345679012345679
sS'auc'
p94
g12
(g16
S'\xbcX\xfaF\x92"\xe6?'
p95
tp96
Rp97
sS'dTNR'
p98
F0.09131782945736433
sS'TPR_non_protected'
p99
F0.26744186046511625
sS'dTPR'
p100
F-0.07823715188056274
sS'TNR_non_protected'
p101
F0.937984496124031
sS'average_precision'
p102
g12
(g16
S'\x95?\xe9\x8f*\x95\xe1?'
p103
tp104
Rp105
sS'TNR_protected'
p106
F0.8466666666666667
sS'accuracy'
p107
g12
(g16
S'\xdb\xf3V\xe3\x14\xdb\xe3?'
p108
tp109
Rp110
sa(dp111
S'TPR_non_protected'
p112
F0.4177215189873418
sS'auc'
p113
g12
(g16
S"\x15\xd6\x98'\xb4\x01\xe8?"
p114
tp115
Rp116
sS'dTNR'
p117
F0.0966810966810967
sS'TPR_protected'
p118
F0.6411764705882353
sS'TNR_protected'
p119
F0.7207792207792207
sS'TNR_non_protected'
p120
F0.8174603174603174
sS'average_precision'
p121
g12
(g16
S'K\x0f\xf6\x91X\xee\xe2?'
p122
tp123
Rp124
sS'dTPR'
p125
F-0.22345495160089357
sS'accuracy'
p126
g12
(g16
S'\xde\xe5\xd5\xe6\xf3\x88\xe5?'
p127
tp128
Rp129
sa(dp130
S'TPR_protected'
p131
F0.4260355029585799
sS'auc'
p132
g12
(g16
S'\xb8\x97*\xd9\x1fl\xe7?'
p133
tp134
Rp135
sS'dTNR'
p136
F0.1378420237480641
sS'TPR_non_protected'
p137
F0.27848101265822783
sS'dTPR'
p138
F-0.14755449030035206
sS'TNR_non_protected'
p139
F0.9230769230769231
sS'average_precision'
p140
g12
(g16
S'\xbc\xb3\x92\x0e\xfe\xbb\xe1?'
p141
tp142
Rp143
sS'TNR_protected'
p144
F0.785234899328859
sS'accuracy'
p145
g12
(g16
S'\x19t\xdf\x8cB\x19\xe4?'
p146
tp147
Rp148
sa(dp149
S'TPR_non_protected'
p150
F0.42857142857142855
sS'auc'
p151
g12
(g16
S'\r\xaa\t\x85M\xb3\xe6?'
p152
tp153
Rp154
sS'dTNR'
p155
F0.2035307923873667
sS'TPR_protected'
p156
F0.6848484848484848
sS'TNR_protected'
p157
F0.6453900709219859
sS'TNR_non_protected'
p158
F0.8489208633093526
sS'average_precision'
p159
g12
(g16
S'\xc8*\xd8\xaf\x99\x04\xe3?'
p160
tp161
Rp162
sS'dTPR'
p163
F-0.25627705627705627
sS'accuracy'
p164
g12
(g16
S'\xcao\x89\xa4\xec\xa7\xe5?'
p165
tp166
Rp167
sa(dp168
S'TPR_protected'
p169
F0.7777777777777778
sS'auc'
p170
g12
(g16
S'\x8f\x8bm\xb3\xc2\xde\xe6?'
p171
tp172
Rp173
sS'dTNR'
p174
F0.13767441860465113
sS'TPR_non_protected'
p175
F0.5232558139534884
sS'dTPR'
p176
F-0.2545219638242894
sS'TNR_non_protected'
p177
F0.6976744186046512
sS'average_precision'
p178
g12
(g16
S'\x85\x1b\x11\xc6\x8eX\xe2?'
p179
tp180
Rp181
sS'TNR_protected'
p182
F0.56
sS'accuracy'
p183
g12
(g16
S'\xf34=^\xe2\xf2\xe4?'
p184
tp185
Rp186
sa(dp187
S'TPR_non_protected'
p188
F0.313953488372093
sS'auc'
p189
g12
(g16
S'\x18=p\xb0\x7f\xf6\xe6?'
p190
tp191
Rp192
sS'dTNR'
p193
F0.07563759769642131
sS'TPR_protected'
p194
F0.6049382716049383
sS'TNR_protected'
p195
F0.7552447552447552
sS'TNR_non_protected'
p196
F0.8308823529411765
sS'average_precision'
p197
g12
(g16
S'5S\xfe\xae\\|\xe2?'
p198
tp199
Rp200
sS'dTPR'
p201
F-0.29098478323284527
sS'accuracy'
p202
g12
(g16
S'\x02U\x9f\xc8m\x02\xe5?'
p203
tp204
Rp205
sasI1
(lp206
(dp207
S'TPR_protected'
p208
F0.6646706586826348
sS'auc'
p209
g12
(g16
S'\xa3L\xcd\xf9Xa\xe6?'
p210
tp211
Rp212
sS'dTNR'
p213
F0.13172043010752688
sS'TPR_non_protected'
p214
F0.36585365853658536
sS'dTPR'
p215
F-0.2988170001460494
sS'TNR_non_protected'
p216
F0.7983870967741935
sS'average_precision'
p217
g12
(g16
S'\xd3\xe8\x8dV\xd2@\xe2?'
p218
tp219
Rp220
sS'TNR_protected'
p221
F0.6666666666666666
sS'accuracy'
p222
g12
(g16
S'X\xaa\xa0t\x1f\xcf\xe4?'
p223
tp224
Rp225
sa(dp226
S'TPR_non_protected'
p227
F0.49411764705882355
sS'auc'
p228
g12
(g16
S'\x7f\xea\x13N\x9aQ\xe6?'
p229
tp230
Rp231
sS'dTNR'
p232
F0.19626799729715683
sS'TPR_protected'
p233
F0.7012195121951219
sS'TNR_protected'
p234
F0.5723270440251572
sS'TNR_non_protected'
p235
F0.768595041322314
sS'average_precision'
p236
g12
(g16
S'\x88\xe2\x034\x00\x16\xe2?'
p237
tp238
Rp239
sS'dTPR'
p240
F-0.20710186513629836
sS'accuracy'
p241
g12
(g16
S'w[\x13X\xaa\xa0\xe4?'
p242
tp243
Rp244
sa(dp245
S'TPR_protected'
p246
F0.8470588235294118
sS'auc'
p247
g12
(g16
S'\xf2k9\x0c\xcb\x94\xe7?'
p248
tp249
Rp250
sS'dTNR'
p251
F0.1058879392212726
sS'TPR_non_protected'
p252
F0.6538461538461539
sS'dTPR'
p253
F-0.1932126696832579
sS'TNR_non_protected'
p254
F0.5811965811965812
sS'average_precision'
p255
g12
(g16
S'&``A\xa6!\xe2?'
p256
tp257
Rp258
sS'TNR_protected'
p259
F0.47530864197530864
sS'accuracy'
p260
g12
(g16
S'\xa5\x94RJ)\xa5\xe4?'
p261
tp262
Rp263
sa(dp264
S'TPR_non_protected'
p265
F0.6835443037974683
sS'auc'
p266
g12
(g16
S'\x1f\xado\xab`N\xe6?'
p267
tp268
Rp269
sS'dTNR'
p270
F0.12841558441558443
sS'TPR_protected'
p271
F0.8461538461538461
sS'TNR_protected'
p272
F0.4155844155844156
sS'TNR_non_protected'
p273
F0.544
sS'average_precision'
p274
g12
(g16
S'\x04\xd9\xfe\xad^\xa7\xe1?'
p275
tp276
Rp277
sS'dTPR'
p278
F-0.1626095423563778
sS'accuracy'
p279
g12
(g16
S'\xfa3\x1b\xb8+\xfa\xe3?'
p280
tp281
Rp282
sa(dp283
S'TPR_protected'
p284
F0.9341317365269461
sS'auc'
p285
g12
(g16
S'\nL\xbf9\xd9-\xe7?'
p286
tp287
Rp288
sS'dTNR'
p289
F0.2580194536423841
sS'TPR_non_protected'
p290
F0.7901234567901234
sS'dTPR'
p291
F-0.14400827973682273
sS'TNR_non_protected'
p292
F0.4765625
sS'average_precision'
p293
g12
(g16
S'\x0c\xf7j\xac\xce\x1e\xe1?'
p294
tp295
Rp296
sS'TNR_protected'
p297
F0.2185430463576159
sS'accuracy'
p298
g12
(g16
S'\x11S[|\x00\x11\xe3?'
p299
tp300
Rp301
sa(dp302
S'TPR_non_protected'
p303
F0.36904761904761907
sS'auc'
p304
g12
(g16
S'"o]\x84\xfb\x8e\xe6?'
p305
tp306
Rp307
sS'dTNR'
p308
F0.2138850290772477
sS'TPR_protected'
p309
F0.6646341463414634
sS'TNR_protected'
p310
F0.6601307189542484
sS'TNR_non_protected'
p311
F0.8740157480314961
sS'average_precision'
p312
g12
(g16
S'z\xbd\x7f\x9cJ\xb4\xe2?'
p313
tp314
Rp315
sS'dTPR'
p316
F-0.2955865272938444
sS'accuracy'
p317
g12
(g16
S'UUUUUU\xe5?'
p318
tp319
Rp320
sa(dp321
S'TPR_protected'
p322
F0.691358024691358
sS'auc'
p323
g12
(g16
S'\xa6j\xec\xce\x0f\x01\xe7?'
p324
tp325
Rp326
sS'dTNR'
p327
F0.07434640522875824
sS'TPR_non_protected'
p328
F0.4883720930232558
sS'dTPR'
p329
F-0.2029859316681022
sS'TNR_non_protected'
p330
F0.7132352941176471
sS'average_precision'
p331
g12
(g16
S'0&\xffb\xf2/\xe2?'
p332
tp333
Rp334
sS'TNR_protected'
p335
F0.6388888888888888
sS'accuracy'
p336
g12
(g16
S'\xca&\x9bl\xb2\xc9\xe4?'
p337
tp338
Rp339
sa(dp340
S'TPR_non_protected'
p341
F0.6233766233766234
sS'auc'
p342
g12
(g16
S't\x14e\xe1\xb9\xb8\xe7?'
p343
tp344
Rp345
sS'dTNR'
p346
F0.15582262743472863
sS'TPR_protected'
p347
F0.7076023391812866
sS'TNR_protected'
p348
F0.631578947368421
sS'TNR_non_protected'
p349
F0.7874015748031497
sS'average_precision'
p350
g12
(g16
S'\xf2c\xbeL\xcfk\xe3?'
p351
tp352
Rp353
sS'dTPR'
p354
F-0.0842257158046632
sS'accuracy'
p355
g12
(g16
S'*\xb6\xe7\xad\xc6)\xe6?'
p356
tp357
Rp358
sa(dp359
S'TPR_protected'
p360
F0.6411764705882353
sS'auc'
p361
g12
(g16
S'\xe7\xc1\x054_e\xe7?'
p362
tp363
Rp364
sS'dTNR'
p365
F0.16704150480474333
sS'TPR_non_protected'
p366
F0.4050632911392405
sS'dTPR'
p367
F-0.23611317944899485
sS'TNR_non_protected'
p368
F0.8656716417910447
sS'average_precision'
p369
g12
(g16
S'j$\xdb\xc7\x85\x1e\xe3?'
p370
tp371
Rp372
sS'TNR_protected'
p373
F0.6986301369863014
sS'accuracy'
p374
g12
(g16
S'\xc04c\x03i\xb7\xe5?'
p375
tp376
Rp377
sa(dp378
S'TPR_non_protected'
p379
F0.6593406593406593
sS'auc'
p380
g12
(g16
S'q\x04\x1a\x89\xa8\xb2\xe6?'
p381
tp382
Rp383
sS'dTNR'
p384
F0.2263287755731469
sS'TPR_protected'
p385
F0.821656050955414
sS'TNR_protected'
p386
F0.3722627737226277
sS'TNR_non_protected'
p387
F0.5985915492957746
sS'average_precision'
p388
g12
(g16
S'\xf2\xcc\xae\xd9.w\xe1?'
p389
tp390
Rp391
sS'dTPR'
p392
F-0.16231539161475472
sS'accuracy'
p393
g12
(g16
S'\xbc\xb3\x92\x0e\xfe\xbb\xe3?'
p394
tp395
Rp396
sassS'weights'
p397
(dp398
I0
(lp399
(lp400
g12
(g16
S'P\xbf\x19G\xa8\xa3\xdf?'
p401
tp402
Rp403
ag12
(g16
S'W s\xdc+.\xe0?'
p404
tp405
Rp406
ag12
(g16
S'\x06\x1a\xdf\x89F\x82\xd3?'
p407
tp408
Rp409
ag12
(g16
S'\x92Juz\xc3B\xc8?'
p410
tp411
Rp412
ag12
(g16
S'\x07\xec\x9b~\x8f\xff\xd2?'
p413
tp414
Rp415
ag12
(g16
S'J\xa9\x94t\x90\xb9\xca?'
p416
tp417
Rp418
aa(lp419
g12
(g16
S'\xc6F\xeeA*\xe8\xdf?'
p420
tp421
Rp422
ag12
(g16
S'\x9e\xdc\x08\xdf\xea\x0b\xe0?'
p423
tp424
Rp425
ag12
(g16
S'50\xdd\xb1\xcd\xd7\xd3?'
p426
tp427
Rp428
ag12
(g16
S'!-" \xb9 \xc8?'
p429
tp430
Rp431
ag12
(g16
S'u,\xff\x99T\xbb\xd2?'
p432
tp433
Rp434
ag12
(g16
S'\x8a\x19%H\x02\xb9\xca?'
p435
tp436
Rp437
aa(lp438
g12
(g16
S'\x04DZ&\xe1\xc2\xdf?'
p439
tp440
Rp441
ag12
(g16
S'\xf7\xdd\xd2l\x8f\x1e\xe0?'
p442
tp443
Rp444
ag12
(g16
S'Gz\xe9\x96\xeel\xd3?'
p445
tp446
Rp447
ag12
(g16
S'u\x93\xe1\x1e\xe5\xab\xc8?'
p448
tp449
Rp450
ag12
(g16
S'\xea\x9e\xf7\xe6a\xf8\xd2?'
p451
tp452
Rp453
ag12
(g16
S'\x04:\\\xe5y\x89\xca?'
p454
tp455
Rp456
aa(lp457
g12
(g16
S'q#\x88\xad\xd4E\xe0?'
p458
tp459
Rp460
ag12
(g16
S'\xfe\xb8\xef\xa4Vt\xdf?'
p461
tp462
Rp463
ag12
(g16
S'\xf3d\xfey\xb0Y\xd4?'
p464
tp465
Rp466
ag12
(g16
S'\xdc\xc3#\xc2\xf1c\xc8?'
p467
tp468
Rp469
ag12
(g16
S'L\xf3\xd0@x*\xd2?'
p470
tp471
Rp472
ag12
(g16
S'd\x8b=\xc8\xbc\x93\xca?'
p473
tp474
Rp475
aa(lp476
g12
(g16
S'\xdc\xa2\xfc\xb9]\xa3\xdf?'
p477
tp478
Rp479
ag12
(g16
S'\xa4\xae\x01#Q.\xe0?'
p480
tp481
Rp482
ag12
(g16
S'\x02\x97\xa0_\xcd\x81\xd3?'
p483
tp484
Rp485
ag12
(g16
S'\xb2\x17\xb8\xb4 C\xc8?'
p486
tp487
Rp488
ag12
(g16
S'Ph\xa1\xd9\xd6\x05\xd3?'
p489
tp490
Rp491
ag12
(g16
S'\xee\xe9\xc3\xd8\x96\xad\xca?'
p492
tp493
Rp494
aa(lp495
g12
(g16
S'\xa5\xd3\xc9\x99\xe2\xff\xdf?'
p496
tp497
Rp498
ag12
(g16
S'/\x16\x1b\xb3\x0e\x00\xe0?'
p499
tp500
Rp501
ag12
(g16
S":N'X\xed\xcf\xd3?"
p502
tp503
Rp504
ag12
(g16
S'\xd2\nE\x83\xea_\xc8?'
p505
tp506
Rp507
ag12
(g16
S'\xa0);\x0b\xdf\xa9\xd2?'
p508
tp509
Rp510
ag12
(g16
S'x\x05\xf6\xb5|\xac\xca?'
p511
tp512
Rp513
aa(lp514
g12
(g16
S'\xb6Mb\xd3\n\x9d\xdf?'
p515
tp516
Rp517
ag12
(g16
S'/\xd9N\x96z1\xe0?'
p518
tp519
Rp520
ag12
(g16
S'K\x9f[\xd1\x08n\xd3?'
p521
tp522
Rp523
ag12
(g16
S'\xd0\\\r\x04\x04^\xc8?'
p524
tp525
Rp526
ag12
(g16
S'\x90\x13\xecH\x93\x06\xd3?'
p527
tp528
Rp529
ag12
(g16
S'\x9c=c\xc7\xc3\xb8\xca?'
p530
tp531
Rp532
aa(lp533
g12
(g16
S'>\xb4\x90\x0f]\xf3\xdf?'
p534
tp535
Rp536
ag12
(g16
S'\xef\xa57xQ\x06\xe0?'
p537
tp538
Rp539
ag12
(g16
S'\xe7\xd9\xa6\xa2\xc2\xe3\xd3?'
p540
tp541
Rp542
ag12
(g16
S'\xac\xb4\xd3\xd94\x1f\xc8?'
p543
tp544
Rp545
ag12
(g16
S'\x81\x99\xdfB\x1b\xdd\xd2?'
p546
tp547
Rp548
ag12
(g16
S'\xb9d\x1f[\x0f_\xca?'
p549
tp550
Rp551
aa(lp552
g12
(g16
S'\xc5\xd0\x9b8x/\xe0?'
p553
tp554
Rp555
ag12
(g16
S'x^\xc8\x8e\x0f\xa1\xdf?'
p556
tp557
Rp558
ag12
(g16
S'FLh\x9bE/\xd4?'
p559
tp560
Rp561
ag12
(g16
S'\x89\xaa\x9e\xabU_\xc8?'
p562
tp563
Rp564
ag12
(g16
S'\xb1\x90\xb8\xd7jo\xd2?'
p565
tp566
Rp567
ag12
(g16
S'\x8d\x9b\x1fnIc\xca?'
p568
tp569
Rp570
aa(lp571
g12
(g16
S'\xa5K\xc64\xa0\xb7\xdf?'
p572
tp573
Rp574
ag12
(g16
S'7\xda\x9c\xe5/$\xe0?'
p575
tp576
Rp577
ag12
(g16
S')\x10\xbb\x84\xd3\xb5\xd3?'
p578
tp579
Rp580
ag12
(g16
S'\xffv\x16`\x99\x03\xc8?'
p581
tp582
Rp583
ag12
(g16
S'r\xf7\xb2\n\x85\x0c\xd3?'
p584
tp585
Rp586
ag12
(g16
S'\xfey\r\x81\xb5w\xca?'
p587
tp588
Rp589
aasI1
(lp590
(lp591
g12
(g16
S'Q\xf7bM\xc0\xe8\xdf?'
p592
tp593
Rp594
ag12
(g16
S'[\x84N\xd9\x9f\x0b\xe0?'
p595
tp596
Rp597
ag12
(g16
S'\xcb\xe8\x061\x03\xb4\xd3?'
p598
tp599
Rp600
ag12
(g16
S'\x10\x1d\xb88zi\xc8?'
p601
tp602
Rp603
ag12
(g16
S'\xca\xf6\xcf\x08\xbf\xc1\xd2?'
p604
tp605
Rp606
ag12
(g16
S'\xd8#\x9aS\x01\xab\xca?'
p607
tp608
Rp609
aa(lp610
g12
(g16
S'\x1f;\xa4UB\x17\xe0?'
p611
tp612
Rp613
ag12
(g16
S'\xb9\x89\xb7T{\xd1\xdf?'
p614
tp615
Rp616
ag12
(g16
S'\\\x00\xd3_\xa0\xd4\xd3?'
p617
tp618
Rp619
ag12
(g16
S'\xc4\xeb\xea\x96\xc8\xb3\xc8?'
p620
tp621
Rp622
ag12
(g16
S'c&\xd5\xc3\xdc\x85\xd2?'
p623
tp624
Rp625
ag12
(g16
S'\xb0\xc6\xc4!=\x97\xca?'
p626
tp627
Rp628
aa(lp629
g12
(g16
S'\x13\x94\xa7\xcaF1\xe0?'
p630
tp631
Rp632
ag12
(g16
S'\xce\xd7\xb0jr\x9d\xdf?'
p633
tp634
Rp635
ag12
(g16
S'\x195\xc4\xaf\x05\x00\xd4?'
p636
tp637
Rp638
ag12
(g16
S'\x1a\xe6\x15\xcb\x0f\xc5\xc8?'
p639
tp640
Rp641
ag12
(g16
S':\x07\xd6\xad\xbe{\xd2?'
p642
tp643
Rp644
ag12
(g16
S'.\xa1\xb5ygC\xca?'
p645
tp646
Rp647
aa(lp648
g12
(g16
S'=%\xed\x91\xf7.\xe0?'
p649
tp650
Rp651
ag12
(g16
S'\x87\xb5%\xdc\x10\xa2\xdf?'
p652
tp653
Rp654
ag12
(g16
S'\xaf\x84\xd8\x18\xea\xea\xd3?'
p655
tp656
Rp657
ag12
(g16
S'\x99\x8b\x03\x16\n\xe6\xc8?'
p658
tp659
Rp660
ag12
(g16
S'\xd6\xe3\xf1\xfb2\x93\xd2?'
p661
tp662
Rp663
ag12
(g16
S'a\xa3g\xc0\xbb\x1d\xca?'
p664
tp665
Rp666
aa(lp667
g12
(g16
S'\xe6\xe8^\xb5-G\xe0?'
p668
tp669
Rp670
ag12
(g16
S',.B\x95\xa4q\xdf?'
p671
tp672
Rp673
ag12
(g16
S'.\xd4\xe4$\xf6K\xd4?'
p674
tp675
Rp676
ag12
(g16
S':\xfb\xb1\x8b\xca\x84\xc8?'
p677
tp678
Rp679
ag12
(g16
S'\x074r\x04\xc8T\xd2?'
p680
tp681
Rp682
ag12
(g16
S'M\xf4\x9f!\xb99\xca?'
p683
tp684
Rp685
aa(lp686
g12
(g16
S'\t\xbf\x1e\x9e\x08\x00\xe0?'
p687
tp688
Rp689
ag12
(g16
S'\x13\x82\xc2\xc3\xee\xff\xdf?'
p690
tp691
Rp692
ag12
(g16
S'\xb2\x88\x86o\xa8\xd3\xd3?'
p693
tp694
Rp695
ag12
(g16
S'\xc2\xeam\x99\xd1X\xc8?'
p696
tp697
Rp698
ag12
(g16
S'b\xffQ\x9a\x93\xb4\xd2?'
p699
tp700
Rp701
ag12
(g16
S'_\x05\xe1R\xb6\x96\xca?'
p702
tp703
Rp704
aa(lp705
g12
(g16
S'\xb0\xed\n\x9bD\xf3\xdf?'
p706
tp707
Rp708
ag12
(g16
S'&\x89z\xb2]\x06\xe0?'
p709
tp710
Rp711
ag12
(g16
S'\x0cF\xa9\x9eV\xcf\xd3?'
p712
tp713
Rp714
ag12
(g16
S'GO\xc3\xf8\xdbG\xc8?'
p715
tp716
Rp717
ag12
(g16
S'\xadw\xc2\x87T\xd9\xd2?'
p718
tp719
Rp720
ag12
(g16
S'>5e\xba\xcdf\xca?'
p721
tp722
Rp723
aa(lp724
g12
(g16
S'\x06\x0e\xe3g\xde\xe6\xdf?'
p725
tp726
Rp727
ag12
(g16
S'\xf9x\x0e\xcc\x90\x0c\xe0?'
p728
tp729
Rp730
ag12
(g16
S'\xb5P,,\xa3\x9d\xd3?'
p731
tp732
Rp733
ag12
(g16
S'\xa8zmwv\x92\xc8?'
p734
tp735
Rp736
ag12
(g16
S'\xda\xa6_\xbd\xfd\xce\xd2?'
p737
tp738
Rp739
ag12
(g16
S'2\x96z\xb5G\x94\xca?'
p740
tp741
Rp742
aa(lp743
g12
(g16
S'\xc6\xa1x<\xb0\xf8\xdf?'
p744
tp745
Rp746
ag12
(g16
S' \xaf\xc3\xe1\xa7\x03\xe0?'
p747
tp748
Rp749
ag12
(g16
S'\xd7,\x86;\xc6\xe5\xd3?'
p750
tp751
Rp752
ag12
(g16
S'\xdf\xe9\xe4\x01\xd4%\xc8?'
p753
tp754
Rp755
ag12
(g16
S'c=#\xb7!\xa9\xd2?'
p756
tp757
Rp758
ag12
(g16
S'\xb5A\xc8\x18\\\xbc\xca?'
p759
tp760
Rp761
aa(lp762
g12
(g16
S'\xfb\xc5\xa4y\xb3I\xe0?'
p763
tp764
Rp765
ag12
(g16
S'\x01t\xb6\x0c\x99l\xdf?'
p766
tp767
Rp768
ag12
(g16
S"'\x01\xf6\x0c\x1bK\xd4?"
p769
tp770
Rp771
ag12
(g16
S'\x9b\x15\xa7\xcc\x97\x90\xc8?'
p772
tp773
Rp774
ag12
(g16
S'\x92\x93\xc7\x158\x8b\xd2?'
p775
tp776
Rp777
ag12
(g16
S'\xd8\xc0\xdd\xed\xc1\xc2\xc9?'
p778
tp779
Rp780
aassb.